target datalayout = "e-m:e-p270:32:32-p271:32:32-p272:64:64-i64:64-i128:128-f80:128-n8:16:32:64-S128"
target triple = "x86_64-pc-linux-gnu"

@hf_afs_fs_status_mask = internal global i32 0, align 4
@hf_afs_fs_status_clientmodtime = internal global i32 0, align 4
@hf_afs_fs_status_owner = internal global i32 0, align 4
@hf_afs_fs_status_group = internal global i32 0, align 4
@hf_afs_fs_status_mode = internal global i32 0, align 4
@hf_afs_fs_status_segsize = internal global i32 0, align 4
@ett_afs_status = internal global i32 0, align 4
@ett_afs_status_mask = internal global i32 0, align 4
@.str.937 = private unnamed_addr constant [3 x i8] c"%s\00", align 1

; Function Attrs: null_pointer_is_valid sspstrong uwtable
define internal void @OUT_TIMESECS(ptr noundef %0, i32 noundef %1) #0 {
  %3 = alloca ptr, align 8
  %4 = alloca i32, align 4
  store ptr %0, ptr %3, align 8
  store i32 %1, ptr %4, align 4
  %5 = load ptr, ptr %3, align 8
  %6 = call ptr @ptvcursor_tree(ptr noundef %5)
  %7 = load i32, ptr %4, align 4
  %8 = load ptr, ptr %3, align 8
  %9 = call ptr @ptvcursor_tvbuff(ptr noundef %8)
  %10 = load ptr, ptr %3, align 8
  %11 = call i32 @ptvcursor_current_offset(ptr noundef %10)
  %12 = call ptr @proto_tree_add_item(ptr noundef %6, i32 noundef %7, ptr noundef %9, i32 noundef %11, i32 noundef 4, i32 noundef 18)
  %13 = load ptr, ptr %3, align 8
  call void @ptvcursor_advance(ptr noundef %13, i32 noundef 4)
  ret void
}

; Function Attrs: null_pointer_is_valid sspstrong uwtable
define internal void @OUT_FS_AFSStoreStatus(ptr noundef %0, ptr noundef %1) #0 {
  %3 = alloca ptr, align 8
  %4 = alloca ptr, align 8
  store ptr %0, ptr %3, align 8
  store ptr %1, ptr %4, align 8
  %5 = load ptr, ptr %3, align 8
  %6 = load i32, ptr @ett_afs_status, align 4
  %7 = load ptr, ptr %4, align 8
  %8 = call ptr (ptr, i32, i32, ptr, ...) @ptvcursor_add_text_with_subtree(ptr noundef %5, i32 noundef -1, i32 noundef %6, ptr noundef @.str.937, ptr noundef %7)
  %9 = load ptr, ptr %3, align 8
  %10 = call ptr @ptvcursor_tree(ptr noundef %9)
  %11 = load ptr, ptr %3, align 8
  %12 = call ptr @ptvcursor_tvbuff(ptr noundef %11)
  %13 = load ptr, ptr %3, align 8
  %14 = call i32 @ptvcursor_current_offset(ptr noundef %13)
  %15 = load i32, ptr @hf_afs_fs_status_mask, align 4
  %16 = load i32, ptr @ett_afs_status_mask, align 4
  %17 = call ptr @proto_tree_add_bitmask(ptr noundef %10, ptr noundef %12, i32 noundef %14, i32 noundef %15, i32 noundef %16, ptr noundef @OUT_FS_AFSStoreStatus.status_mask_flags, i32 noundef 0)
  %18 = load ptr, ptr %3, align 8
  call void @ptvcursor_advance(ptr noundef %18, i32 noundef 4)
  %19 = load ptr, ptr %3, align 8
  %20 = load i32, ptr @hf_afs_fs_status_clientmodtime, align 4
  call void @OUT_TIMESECS(ptr noundef %19, i32 noundef %20)
  %21 = load ptr, ptr %3, align 8
  %22 = load i32, ptr @hf_afs_fs_status_owner, align 4
  %23 = call ptr @ptvcursor_add(ptr noundef %21, i32 noundef %22, i32 noundef 4, i32 noundef 0)
  %24 = load ptr, ptr %3, align 8
  %25 = load i32, ptr @hf_afs_fs_status_group, align 4
  %26 = call ptr @ptvcursor_add(ptr noundef %24, i32 noundef %25, i32 noundef 4, i32 noundef 0)
  %27 = load ptr, ptr %3, align 8
  %28 = load i32, ptr @hf_afs_fs_status_mode, align 4
  %29 = call ptr @ptvcursor_add(ptr noundef %27, i32 noundef %28, i32 noundef 4, i32 noundef 0)
  %30 = load ptr, ptr %3, align 8
  %31 = load i32, ptr @hf_afs_fs_status_segsize, align 4
  %32 = call ptr @ptvcursor_add(ptr noundef %30, i32 noundef %31, i32 noundef 4, i32 noundef 0)
  %33 = load ptr, ptr %3, align 8
  call void @ptvcursor_pop_subtree(ptr noundef %33)
  ret void
}