; Function Attrs: null_pointer_is_valid sspstrong uwtable
define internal fastcc void @OUT_FS_AFSStoreStatus(ptr noundef %0, ptr noundef %1) unnamed_addr #0 {
  %3 = load i32, ptr @ett_afs_status, align 4
  %4 = tail call ptr (ptr, i32, i32, ptr, ...) @ptvcursor_add_text_with_subtree(ptr noundef %0, i32 noundef -1, i32 noundef %3, ptr noundef nonnull @.str.937, ptr noundef %1)
  %5 = tail call ptr @ptvcursor_tree(ptr noundef %0)
  %6 = tail call ptr @ptvcursor_tvbuff(ptr noundef %0)
  %7 = tail call i32 @ptvcursor_current_offset(ptr noundef %0)
  %8 = load i32, ptr @hf_afs_fs_status_mask, align 4
  %9 = load i32, ptr @ett_afs_status_mask, align 4
  %10 = tail call ptr @proto_tree_add_bitmask(ptr noundef %5, ptr noundef %6, i32 noundef %7, i32 noundef %8, i32 noundef %9, ptr noundef nonnull @OUT_FS_AFSStoreStatus.status_mask_flags, i32 noundef 0)
  tail call void @ptvcursor_advance(ptr noundef %0, i32 noundef 4)
  %11 = load i32, ptr @hf_afs_fs_status_clientmodtime, align 4
  %12 = tail call ptr @ptvcursor_tree(ptr noundef %0)
  %13 = tail call ptr @ptvcursor_tvbuff(ptr noundef %0)
  %14 = tail call i32 @ptvcursor_current_offset(ptr noundef %0)
  %15 = tail call ptr @proto_tree_add_item(ptr noundef %12, i32 noundef %11, ptr noundef %13, i32 noundef %14, i32 noundef 4, i32 noundef 18)
  tail call void @ptvcursor_advance(ptr noundef %0, i32 noundef 4)
  %16 = load i32, ptr @hf_afs_fs_status_owner, align 4
  %17 = tail call ptr @ptvcursor_add(ptr noundef %0, i32 noundef %16, i32 noundef 4, i32 noundef 0)
  %18 = load i32, ptr @hf_afs_fs_status_group, align 4
  %19 = tail call ptr @ptvcursor_add(ptr noundef %0, i32 noundef %18, i32 noundef 4, i32 noundef 0)
  %20 = load i32, ptr @hf_afs_fs_status_mode, align 4
  %21 = tail call ptr @ptvcursor_add(ptr noundef %0, i32 noundef %20, i32 noundef 4, i32 noundef 0)
  %22 = load i32, ptr @hf_afs_fs_status_segsize, align 4
  %23 = tail call ptr @ptvcursor_add(ptr noundef %0, i32 noundef %22, i32 noundef 4, i32 noundef 0)
  tail call void @ptvcursor_pop_subtree(ptr noundef %0)
  ret void
}